cnumpy.core.multiarray
_reconstruct
p0
(cnumpy
ndarray
p1
(I0
tp2
S'b'
p3
tp4
Rp5
(I1
(I14
tp6
cnumpy
dtype
p7
(S'O8'
p8
I0
I1
tp9
Rp10
(I3
S'|'
p11
NNNI-1
I-1
I63
tp12
bI00
(lp13
S'exercised_stock_options'
p14
aS'restricted_stock'
p15
aS'shared_receipt_with_poi'
p16
aS'restricted_stock_deferred'
p17
aS'total_stock_value'
p18
aS'loan_advances'
p19
aS'director_fees'
p20
aS'deferred_income'
p21
aS'poi_interaction'
p22
aS'income_ratio'
p23
aS'expenses_std'
p24
aS'deferral_payments_std'
p25
aS'other_std'
p26
aS'poi'
p27
atp28
b.