(lp0
S'poi'
p1
aS'exercised_stock_options'
p2
aS'restricted_stock'
p3
aS'shared_receipt_with_poi'
p4
aS'restricted_stock_deferred'
p5
aS'total_stock_value'
p6
aS'loan_advances'
p7
aS'director_fees'
p8
aS'deferred_income'
p9
aS'poi_interaction'
p10
aS'income_ratio'
p11
aS'expenses_std'
p12
aS'deferral_payments_std'
p13
aS'other_std'
p14
a.